; Function Attrs: mustprogress nounwind uwtable
define hidden noundef ptr @_ZN15KlassInfoBucket6lookupEP5Klass(ptr nocapture noundef nonnull align 8 dereferenceable(8) %0, ptr noundef %1) local_unnamed_addr #0 align 2 {
  %3 = getelementptr inbounds i8, ptr %1, i64 112
  %4 = load ptr, ptr %3, align 8
  %5 = icmp eq ptr %4, null
  br i1 %5, label %_ZNK5Klass24java_mirror_no_keepaliveEv.exit.thread, label %_ZNK5Klass24java_mirror_no_keepaliveEv.exit

_ZNK5Klass24java_mirror_no_keepaliveEv.exit:      ; preds = %2
  %6 = load ptr, ptr @_ZN14AccessInternal15RuntimeDispatchILm544836EP7oopDescLNS_11BarrierTypeE2EE10_load_funcE, align 8
  %7 = tail call noundef ptr %6(ptr noundef nonnull %4) #15
  %8 = icmp eq ptr %7, null
  br i1 %8, label %_ZNK5Klass24java_mirror_no_keepaliveEv.exit.thread, label %.preheader

.preheader:                                       ; preds = %_ZNK5Klass24java_mirror_no_keepaliveEv.exit, %9
  %.0.in = phi ptr [ %.0, %9 ], [ %0, %_ZNK5Klass24java_mirror_no_keepaliveEv.exit ]
  %.0 = load ptr, ptr %.0.in, align 8
  %.not = icmp eq ptr %.0, null
  br i1 %.not, label %13, label %9

9:                                                ; preds = %.preheader
  %10 = getelementptr inbounds i8, ptr %.0, i64 8
  %11 = load ptr, ptr %10, align 8
  %12 = icmp eq ptr %11, %1
  br i1 %12, label %_ZNK5Klass24java_mirror_no_keepaliveEv.exit.thread, label %.preheader, !llvm.loop !6

13:                                               ; preds = %.preheader
  %14 = tail call noundef ptr @_Z12AllocateHeapm8MEMFLAGSN17AllocFailStrategy13AllocFailEnumE(i64 noundef 56, i8 noundef zeroext 9, i32 noundef 1) #15
  %15 = icmp eq ptr %14, null
  br i1 %15, label %_ZNK5Klass24java_mirror_no_keepaliveEv.exit.thread, label %16

16:                                               ; preds = %13
  %17 = load ptr, ptr %0, align 8
  store ptr %17, ptr %14, align 8
  %18 = getelementptr inbounds i8, ptr %14, i64 8
  store ptr %1, ptr %18, align 8
  %19 = getelementptr inbounds i8, ptr %14, i64 16
  %20 = getelementptr inbounds i8, ptr %14, i64 32
  tail call void @llvm.memset.p0.i64(ptr noundef nonnull align 8 dereferenceable(16) %19, i8 0, i64 16, i1 false)
  store i64 -1, ptr %20, align 8
  %21 = getelementptr inbounds i8, ptr %14, i64 40
  store i8 0, ptr %21, align 8
  %22 = getelementptr inbounds i8, ptr %14, i64 48
  store ptr null, ptr %22, align 8
  store ptr %14, ptr %0, align 8
  br label %_ZNK5Klass24java_mirror_no_keepaliveEv.exit.thread

_ZNK5Klass24java_mirror_no_keepaliveEv.exit.thread: ; preds = %9, %13, %2, %16, %_ZNK5Klass24java_mirror_no_keepaliveEv.exit
  %.015 = phi ptr [ null, %_ZNK5Klass24java_mirror_no_keepaliveEv.exit ], [ %14, %16 ], [ null, %2 ], [ null, %13 ], [ %.0, %9 ]
  ret ptr %.015
}